; Function Attrs: mustprogress uwtable
define noundef zeroext i1 @_ZN18OpenImageIO_v2_6_010decode_xmpERKNSt7__cxx1112basic_stringIcSt11char_traitsIcESaIcEEERNS_9ImageSpecE(ptr noundef nonnull align 8 dereferenceable(32) %xml, ptr noundef nonnull align 8 dereferenceable(160) %spec) local_unnamed_addr #5 {
entry:
  %agg.tmp = alloca %"class.OpenImageIO_v2_6_0::basic_string_view", align 8
  %call.i = tail call noundef ptr @_ZNKSt7__cxx1112basic_stringIcSt11char_traitsIcESaIcEE4dataEv(ptr noundef nonnull align 8 dereferenceable(32) %xml) #23
  store ptr %call.i, ptr %agg.tmp, align 8
  %m_len.i = getelementptr inbounds i8, ptr %agg.tmp, i64 8
  %call2.i = tail call noundef i64 @_ZNKSt7__cxx1112basic_stringIcSt11char_traitsIcESaIcEE4sizeEv(ptr noundef nonnull align 8 dereferenceable(32) %xml) #23
  store i64 %call2.i, ptr %m_len.i, align 8
  %call = call noundef zeroext i1 @_ZN18OpenImageIO_v2_6_010decode_xmpENS_17basic_string_viewIcSt11char_traitsIcEEERNS_9ImageSpecE(ptr noundef nonnull %agg.tmp, ptr noundef nonnull align 8 dereferenceable(160) %spec)
  ret i1 true
}